; Function Attrs: mustprogress nofree norecurse nosync nounwind willreturn memory(argmem: write, inaccessiblemem: write) uwtable
define range(i32 0, 2) i32 @ROCKSDB_XXH3_64bits_reset_withSecret(ptr noundef writeonly captures(none) %0, ptr noundef captures(none) %1, i64 noundef %2) local_unnamed_addr #5 {
  %4 = icmp eq ptr %0, null
  br i1 %4, label %22, label %5

5:                                                ; preds = %3
  %6 = getelementptr inbounds nuw i8, ptr %0, i64 512
  tail call void @llvm.memset.p0.i64(ptr noundef nonnull align 1 dereferenceable(24) %6, i8 0, i64 24, i1 false)
  store i64 3266489917, ptr %0, align 64, !tbaa !19
  %7 = getelementptr inbounds nuw i8, ptr %0, i64 8
  store i64 -7046029288634856825, ptr %7, align 8, !tbaa !19
  %8 = getelementptr inbounds nuw i8, ptr %0, i64 16
  store i64 -4417276706812531889, ptr %8, align 16, !tbaa !19
  %9 = getelementptr inbounds nuw i8, ptr %0, i64 24
  store i64 1609587929392839161, ptr %9, align 8, !tbaa !19
  %10 = getelementptr inbounds nuw i8, ptr %0, i64 32
  store i64 -8796714831421723037, ptr %10, align 32, !tbaa !19
  %11 = getelementptr inbounds nuw i8, ptr %0, i64 40
  store i64 2246822519, ptr %11, align 8, !tbaa !19
  %12 = getelementptr inbounds nuw i8, ptr %0, i64 48
  store i64 2870177450012600261, ptr %12, align 16, !tbaa !19
  %13 = getelementptr inbounds nuw i8, ptr %0, i64 56
  store i64 2654435761, ptr %13, align 8, !tbaa !19
  %14 = getelementptr inbounds nuw i8, ptr %0, i64 552
  store i64 0, ptr %14, align 8, !tbaa !33
  %15 = getelementptr inbounds nuw i8, ptr %0, i64 568
  store ptr %1, ptr %15, align 8, !tbaa !37
  %16 = icmp ugt i64 %2, 135
  tail call void @llvm.assume(i1 %16)
  %17 = add i64 %2, -64
  %18 = getelementptr inbounds nuw i8, ptr %0, i64 544
  store i64 %17, ptr %18, align 32, !tbaa !38
  %19 = lshr i64 %17, 3
  %20 = getelementptr inbounds nuw i8, ptr %0, i64 536
  store i64 %19, ptr %20, align 8, !tbaa !39
  %21 = icmp eq ptr %1, null
  %spec.select = zext i1 %21 to i32
  br label %22

22:                                               ; preds = %5, %3
  %.0 = phi i32 [ 1, %3 ], [ %spec.select, %5 ]
  ret i32 %.0
}